; ModuleID = '13/1112.c'
source_filename = "13/1112.c"
target datalayout = "e-m:e-p270:32:32-p271:32:32-p272:64:64-i64:64-f80:128-n8:16:32:64-S128"
target triple = "x86_64-pc-linux-gnu"

@.str = private unnamed_addr constant [3 x i8] c"%d\00", align 1
@.str.1 = private unnamed_addr constant [4 x i8] c"%d \00", align 1

; Function Attrs: noinline nounwind uwtable
define dso_local i32 @main() #0 {
  %1 = alloca i32, align 4
  %2 = alloca i32, align 4
  %3 = alloca i32, align 4
  %4 = alloca [100 x i32], align 16
  %5 = alloca i32, align 4
  %6 = alloca [100 x i32], align 16
  %7 = alloca i32, align 4
  store i32 0, i32* %1, align 4
  %8 = call i32 (i8*, ...) @__isoc99_scanf(i8* getelementptr inbounds ([3 x i8], [3 x i8]* @.str, i64 0, i64 0), i32* %2)
  store i32 1, i32* %3, align 4
  br label %9

9:                                                ; preds = %16, %0
  %10 = load i32, i32* %3, align 4
  %11 = icmp sle i32 %10, 100
  br i1 %11, label %12, label %19

12:                                               ; preds = %9
  %13 = load i32, i32* %3, align 4
  %14 = sext i32 %13 to i64
  %15 = getelementptr inbounds [100 x i32], [100 x i32]* %4, i64 0, i64 %14
  store i32 0, i32* %15, align 4
  br label %16

16:                                               ; preds = %12
  %17 = load i32, i32* %3, align 4
  %18 = add nsw i32 %17, 1
  store i32 %18, i32* %3, align 4
  br label %9

19:                                               ; preds = %9
  store i32 1, i32* %7, align 4
  store i32 1, i32* %3, align 4
  br label %20

20:                                               ; preds = %42, %19
  %21 = load i32, i32* %3, align 4
  %22 = load i32, i32* %2, align 4
  %23 = icmp sle i32 %21, %22
  br i1 %23, label %24, label %45

24:                                               ; preds = %20
  %25 = call i32 (i8*, ...) @__isoc99_scanf(i8* getelementptr inbounds ([3 x i8], [3 x i8]* @.str, i64 0, i64 0), i32* %5)
  %26 = load i32, i32* %5, align 4
  %27 = sext i32 %26 to i64
  %28 = getelementptr inbounds [100 x i32], [100 x i32]* %4, i64 0, i64 %27
  %29 = load i32, i32* %28, align 4
  %30 = icmp eq i32 %29, 0
  br i1 %30, label %31, label %38

31:                                               ; preds = %24
  %32 = load i32, i32* %5, align 4
  %33 = load i32, i32* %7, align 4
  %34 = sext i32 %33 to i64
  %35 = getelementptr inbounds [100 x i32], [100 x i32]* %6, i64 0, i64 %34
  store i32 %32, i32* %35, align 4
  %36 = load i32, i32* %7, align 4
  %37 = add nsw i32 %36, 1
  store i32 %37, i32* %7, align 4
  br label %38

38:                                               ; preds = %31, %24
  %39 = load i32, i32* %5, align 4
  %40 = sext i32 %39 to i64
  %41 = getelementptr inbounds [100 x i32], [100 x i32]* %4, i64 0, i64 %40
  store i32 1, i32* %41, align 4
  br label %42

42:                                               ; preds = %38
  %43 = load i32, i32* %3, align 4
  %44 = add nsw i32 %43, 1
  store i32 %44, i32* %3, align 4
  br label %20

45:                                               ; preds = %20
  store i32 1, i32* %3, align 4
  br label %46

46:                                               ; preds = %57, %45
  %47 = load i32, i32* %3, align 4
  %48 = load i32, i32* %7, align 4
  %49 = sub nsw i32 %48, 1
  %50 = icmp slt i32 %47, %49
  br i1 %50, label %51, label %60

51:                                               ; preds = %46
  %52 = load i32, i32* %3, align 4
  %53 = sext i32 %52 to i64
  %54 = getelementptr inbounds [100 x i32], [100 x i32]* %6, i64 0, i64 %53
  %55 = load i32, i32* %54, align 4
  %56 = call i32 (i8*, ...) @printf(i8* getelementptr inbounds ([4 x i8], [4 x i8]* @.str.1, i64 0, i64 0), i32 %55)
  br label %57

57:                                               ; preds = %51
  %58 = load i32, i32* %3, align 4
  %59 = add nsw i32 %58, 1
  store i32 %59, i32* %3, align 4
  br label %46

60:                                               ; preds = %46
  %61 = load i32, i32* %7, align 4
  %62 = sub nsw i32 %61, 1
  %63 = sext i32 %62 to i64
  %64 = getelementptr inbounds [100 x i32], [100 x i32]* %6, i64 0, i64 %63
  %65 = load i32, i32* %64, align 4
  %66 = call i32 (i8*, ...) @printf(i8* getelementptr inbounds ([3 x i8], [3 x i8]* @.str, i64 0, i64 0), i32 %65)
  ret i32 0
}

declare dso_local i32 @__isoc99_scanf(i8*, ...) #1

declare dso_local i32 @printf(i8*, ...) #1


!llvm.module.flags = !{!0}
!llvm.ident = !{!1}

!0 = !{i32 1, !"wchar_size", i32 4}
!1 = !{!"clang version 10.0.0-4ubuntu1 "}
